target datalayout = "e-m:e-p270:32:32-p271:32:32-p272:64:64-i64:64-i128:128-f80:128-n8:16:32:64-S128"
target triple = "x86_64-pc-linux-gnu"

%"class.std::__shared_count" = type { ptr }
%"struct.std::once_flag" = type { i32 }
%"class.std::shared_ptr.51" = type { %"class.std::__shared_ptr.52" }
%"class.std::__shared_ptr.52" = type { ptr, %"class.std::__shared_count" }
%class.anon = type { ptr }
%"struct.std::once_flag::_Prepare_execution" = type { i8 }
%"class.std::shared_ptr.56" = type { %"class.std::__shared_ptr.57" }
%"class.std::__shared_ptr.57" = type { ptr, %"class.std::__shared_count" }
%"class.std::_Sp_counted_base" = type { ptr, i32, i32 }
%class.anon.121 = type { i8 }

@_ZN5arrowL10g_registryE = internal global { ptr, %"class.std::__shared_count" } zeroinitializer, align 8
@_ZN5arrowL20registry_initializedE = internal global %"struct.std::once_flag" zeroinitializer, align 4
@__libc_single_threaded = external global i8, align 1
@_ZSt15__once_callable = external thread_local global ptr, align 8
@_ZSt11__once_call = external thread_local global ptr, align 8

; Function Attrs: alwaysinline mustprogress nounwind uwtable
define linkonce_odr void @_ZN9__gnu_cxx12__atomic_addEPVii(ptr noundef %0, i32 noundef %1) #15 comdat {
  %3 = alloca ptr, align 8
  %4 = alloca i32, align 4
  %5 = alloca i32, align 4
  %6 = alloca i32, align 4
  store ptr %0, ptr %3, align 8, !tbaa !229
  store i32 %1, ptr %4, align 4, !tbaa !8
  %7 = load ptr, ptr %3, align 8, !tbaa !229
  %8 = load i32, ptr %4, align 4, !tbaa !8
  store i32 %8, ptr %5, align 4, !tbaa !8
  %9 = load i32, ptr %5, align 4
  %10 = atomicrmw volatile add ptr %7, i32 %9 acq_rel, align 4
  store i32 %10, ptr %6, align 4
  ret void
}

; Function Attrs: alwaysinline mustprogress nounwind uwtable
define linkonce_odr void @_ZN9__gnu_cxx19__atomic_add_singleEPii(ptr noundef %0, i32 noundef %1) #15 comdat {
  %3 = alloca ptr, align 8
  %4 = alloca i32, align 4
  store ptr %0, ptr %3, align 8, !tbaa !229
  store i32 %1, ptr %4, align 4, !tbaa !8
  %5 = load i32, ptr %4, align 4, !tbaa !8
  %6 = load ptr, ptr %3, align 8, !tbaa !229
  %7 = load i32, ptr %6, align 4, !tbaa !8
  %8 = add nsw i32 %7, %5
  store i32 %8, ptr %6, align 4, !tbaa !8
  ret void
}

; Function Attrs: alwaysinline mustprogress nounwind uwtable
define linkonce_odr noundef zeroext i1 @_ZN9__gnu_cxx20__is_single_threadedEv() #15 comdat {
  %1 = load i8, ptr @__libc_single_threaded, align 1, !tbaa !22
  %2 = icmp ne i8 %1, 0
  ret i1 %2
}

; Function Attrs: alwaysinline mustprogress uwtable
define linkonce_odr void @_ZN9__gnu_cxx21__atomic_add_dispatchEPii(ptr noundef %0, i32 noundef %1) #16 comdat {
  %3 = alloca ptr, align 8
  %4 = alloca i32, align 4
  store ptr %0, ptr %3, align 8, !tbaa !229
  store i32 %1, ptr %4, align 4, !tbaa !8
  %5 = call noundef zeroext i1 @_ZN9__gnu_cxx20__is_single_threadedEv() #9
  br i1 %5, label %6, label %9

6:                                                ; preds = %2
  %7 = load ptr, ptr %3, align 8, !tbaa !229
  %8 = load i32, ptr %4, align 4, !tbaa !8
  call void @_ZN9__gnu_cxx19__atomic_add_singleEPii(ptr noundef %7, i32 noundef %8)
  br label %12

9:                                                ; preds = %2
  %10 = load ptr, ptr %3, align 8, !tbaa !229
  %11 = load i32, ptr %4, align 4, !tbaa !8
  call void @_ZN9__gnu_cxx12__atomic_addEPVii(ptr noundef %10, i32 noundef %11)
  br label %12

12:                                               ; preds = %9, %6
  ret void
}

; Function Attrs: noinline noreturn nounwind uwtable
define linkonce_odr hidden void @__clang_call_terminate(ptr noundef %0) #14 comdat {
  %2 = call ptr @__cxa_begin_catch(ptr %0) #9
  call void @_ZSt9terminatev() #21
  unreachable
}

; Function Attrs: mustprogress uwtable
define linkonce_odr void @_ZNSt16_Sp_counted_baseILN9__gnu_cxx12_Lock_policyE2EE15_M_add_ref_copyEv(ptr noundef nonnull align 8 dereferenceable(16) %0) #1 comdat align 2 {
  %2 = alloca ptr, align 8
  store ptr %0, ptr %2, align 8, !tbaa !181
  %3 = load ptr, ptr %2, align 8
  %4 = getelementptr inbounds nuw %"class.std::_Sp_counted_base", ptr %3, i32 0, i32 1
  call void @_ZN9__gnu_cxx21__atomic_add_dispatchEPii(ptr noundef %4, i32 noundef 1)
  ret void
}

; Function Attrs: mustprogress nounwind uwtable
define linkonce_odr void @_ZNSt14__shared_countILN9__gnu_cxx12_Lock_policyE2EEC2ERKS2_(ptr noundef nonnull align 8 dereferenceable(8) %0, ptr noundef nonnull align 8 dereferenceable(8) %1) unnamed_addr #0 comdat align 2 personality ptr @__gxx_personality_v0 {
  %3 = alloca ptr, align 8
  %4 = alloca ptr, align 8
  store ptr %0, ptr %3, align 8, !tbaa !161
  store ptr %1, ptr %4, align 8, !tbaa !161
  %5 = load ptr, ptr %3, align 8
  %6 = getelementptr inbounds nuw %"class.std::__shared_count", ptr %5, i32 0, i32 0
  %7 = load ptr, ptr %4, align 8, !tbaa !161
  %8 = getelementptr inbounds nuw %"class.std::__shared_count", ptr %7, i32 0, i32 0
  %9 = load ptr, ptr %8, align 8, !tbaa !169
  store ptr %9, ptr %6, align 8, !tbaa !169
  %10 = getelementptr inbounds nuw %"class.std::__shared_count", ptr %5, i32 0, i32 0
  %11 = load ptr, ptr %10, align 8, !tbaa !169
  %12 = icmp ne ptr %11, null
  br i1 %12, label %13, label %17

13:                                               ; preds = %2
  %14 = getelementptr inbounds nuw %"class.std::__shared_count", ptr %5, i32 0, i32 0
  %15 = load ptr, ptr %14, align 8, !tbaa !169
  invoke void @_ZNSt16_Sp_counted_baseILN9__gnu_cxx12_Lock_policyE2EE15_M_add_ref_copyEv(ptr noundef nonnull align 8 dereferenceable(16) %15)
          to label %16 unwind label %18

16:                                               ; preds = %13
  br label %17

17:                                               ; preds = %16, %2
  ret void

18:                                               ; preds = %13
  %19 = landingpad { ptr, i32 }
          catch ptr null
  %20 = extractvalue { ptr, i32 } %19, 0
  call void @__clang_call_terminate(ptr %20) #21
  unreachable
}

; Function Attrs: inlinehint mustprogress nounwind uwtable
define internal noundef i32 @_ZL18__gthread_active_pv() #4 {
  ret i32 1
}

; Function Attrs: inlinehint mustprogress nounwind uwtable
define linkonce_odr noundef ptr @_ZZNSt9once_flag18_Prepare_executionC1IZSt9call_onceIRFvvEJEEvRS_OT_DpOT0_EUlvE_EERS6_ENKUlvE_cvPS3_Ev(ptr noundef nonnull align 1 dereferenceable(1) %0) #4 comdat align 2 {
  %2 = alloca ptr, align 8
  store ptr %0, ptr %2, align 8, !tbaa !145
  ret ptr @_ZZNSt9once_flag18_Prepare_executionC1IZSt9call_onceIRFvvEJEEvRS_OT_DpOT0_EUlvE_EERS6_ENUlvE_8__invokeEv
}

; Function Attrs: mustprogress nounwind uwtable
define linkonce_odr noundef ptr @_ZNKSt12__shared_ptrIN5arrow21ExtensionTypeRegistryELN9__gnu_cxx12_Lock_policyE2EE3getEv(ptr noundef nonnull align 8 dereferenceable(16) %0) #0 comdat align 2 {
  %2 = alloca ptr, align 8
  store ptr %0, ptr %2, align 8, !tbaa !507
  %3 = load ptr, ptr %2, align 8
  %4 = getelementptr inbounds nuw %"class.std::__shared_ptr.52", ptr %3, i32 0, i32 0
  %5 = load ptr, ptr %4, align 8, !tbaa !509
  ret ptr %5
}

; Function Attrs: mustprogress nounwind uwtable
define linkonce_odr void @_ZNSt12__shared_ptrIN5arrow21ExtensionTypeRegistryELN9__gnu_cxx12_Lock_policyE2EEC2ERKS4_(ptr noundef nonnull align 8 dereferenceable(16) %0, ptr noundef nonnull align 8 dereferenceable(16) %1) unnamed_addr #0 comdat align 2 {
  %3 = alloca ptr, align 8
  %4 = alloca ptr, align 8
  store ptr %0, ptr %3, align 8, !tbaa !507
  store ptr %1, ptr %4, align 8, !tbaa !507
  %5 = load ptr, ptr %3, align 8
  %6 = getelementptr inbounds nuw %"class.std::__shared_ptr.52", ptr %5, i32 0, i32 0
  %7 = load ptr, ptr %4, align 8, !tbaa !507
  %8 = getelementptr inbounds nuw %"class.std::__shared_ptr.52", ptr %7, i32 0, i32 0
  %9 = load ptr, ptr %8, align 8, !tbaa !509
  store ptr %9, ptr %6, align 8, !tbaa !509
  %10 = getelementptr inbounds nuw %"class.std::__shared_ptr.52", ptr %5, i32 0, i32 1
  %11 = load ptr, ptr %4, align 8, !tbaa !507
  %12 = getelementptr inbounds nuw %"class.std::__shared_ptr.52", ptr %11, i32 0, i32 1
  call void @_ZNSt14__shared_countILN9__gnu_cxx12_Lock_policyE2EEC2ERKS2_(ptr noundef nonnull align 8 dereferenceable(8) %10, ptr noundef nonnull align 8 dereferenceable(8) %12) #9
  ret void
}

; Function Attrs: mustprogress nounwind uwtable
define linkonce_odr void @_ZNSt9once_flag18_Prepare_executionD2Ev(ptr noundef nonnull align 1 dereferenceable(1) %0) unnamed_addr #0 comdat align 2 {
  %2 = alloca ptr, align 8
  store ptr %0, ptr %2, align 8, !tbaa !637
  %3 = call align 8 ptr @llvm.threadlocal.address.p0(ptr align 8 @_ZSt15__once_callable)
  store ptr null, ptr %3, align 8, !tbaa !145
  %4 = call align 8 ptr @llvm.threadlocal.address.p0(ptr align 8 @_ZSt11__once_call)
  store ptr null, ptr %4, align 8, !tbaa !145
  ret void
}

; Function Attrs: inlinehint mustprogress uwtable
define internal noundef i32 @_ZL14__gthread_oncePiPFvvE(ptr noundef %0, ptr noundef %1) #3 {
  %3 = alloca i32, align 4
  %4 = alloca ptr, align 8
  %5 = alloca ptr, align 8
  store ptr %0, ptr %4, align 8, !tbaa !229
  store ptr %1, ptr %5, align 8, !tbaa !145
  %6 = call noundef i32 @_ZL18__gthread_active_pv()
  %7 = icmp ne i32 %6, 0
  br i1 %7, label %8, label %12

8:                                                ; preds = %2
  %9 = load ptr, ptr %4, align 8, !tbaa !229
  %10 = load ptr, ptr %5, align 8, !tbaa !145
  %11 = call i32 @pthread_once(ptr noundef %9, ptr noundef %10)
  store i32 %11, ptr %3, align 4
  br label %13

12:                                               ; preds = %2
  store i32 -1, ptr %3, align 4
  br label %13

13:                                               ; preds = %12, %8
  %14 = load i32, ptr %3, align 4
  ret i32 %14
}

; Function Attrs: mustprogress nounwind uwtable
define linkonce_odr void @_ZNSt9once_flag18_Prepare_executionC2IZSt9call_onceIRFvvEJEEvRS_OT_DpOT0_EUlvE_EERS6_(ptr noundef nonnull align 1 dereferenceable(1) %0, ptr noundef nonnull align 8 dereferenceable(8) %1) unnamed_addr #0 comdat align 2 {
  %3 = alloca ptr, align 8
  %4 = alloca ptr, align 8
  %5 = alloca %class.anon.121, align 1
  store ptr %0, ptr %3, align 8, !tbaa !637
  store ptr %1, ptr %4, align 8, !tbaa !145
  %6 = load ptr, ptr %4, align 8, !tbaa !145
  %7 = call align 8 ptr @llvm.threadlocal.address.p0(ptr align 8 @_ZSt15__once_callable)
  store ptr %6, ptr %7, align 8, !tbaa !145
  call void @llvm.lifetime.start.p0(i64 1, ptr %5) #9
  %8 = call noundef ptr @_ZZNSt9once_flag18_Prepare_executionC1IZSt9call_onceIRFvvEJEEvRS_OT_DpOT0_EUlvE_EERS6_ENKUlvE_cvPS3_Ev(ptr noundef nonnull align 1 dereferenceable(1) %5) #9
  %9 = call align 8 ptr @llvm.threadlocal.address.p0(ptr align 8 @_ZSt11__once_call)
  store ptr %8, ptr %9, align 8, !tbaa !145
  call void @llvm.lifetime.end.p0(i64 1, ptr %5) #9
  ret void
}

; Function Attrs: mustprogress nounwind uwtable
define linkonce_odr noundef ptr @_ZNKSt19__shared_ptr_accessIN5arrow21ExtensionTypeRegistryELN9__gnu_cxx12_Lock_policyE2ELb0ELb0EE6_M_getEv(ptr noundef nonnull align 1 dereferenceable(1) %0) #0 comdat align 2 {
  %2 = alloca ptr, align 8
  store ptr %0, ptr %2, align 8, !tbaa !155
  %3 = load ptr, ptr %2, align 8
  %4 = call noundef ptr @_ZNKSt12__shared_ptrIN5arrow21ExtensionTypeRegistryELN9__gnu_cxx12_Lock_policyE2EE3getEv(ptr noundef nonnull align 8 dereferenceable(16) %3) #9
  ret ptr %4
}

; Function Attrs: mustprogress nounwind uwtable
define linkonce_odr void @_ZNSt10shared_ptrIN5arrow21ExtensionTypeRegistryEEC2ERKS2_(ptr noundef nonnull align 8 dereferenceable(16) %0, ptr noundef nonnull align 8 dereferenceable(16) %1) unnamed_addr #0 comdat align 2 {
  %3 = alloca ptr, align 8
  %4 = alloca ptr, align 8
  store ptr %0, ptr %3, align 8, !tbaa !151
  store ptr %1, ptr %4, align 8, !tbaa !151
  %5 = load ptr, ptr %3, align 8
  %6 = load ptr, ptr %4, align 8, !tbaa !151
  call void @_ZNSt12__shared_ptrIN5arrow21ExtensionTypeRegistryELN9__gnu_cxx12_Lock_policyE2EEC2ERKS4_(ptr noundef nonnull align 8 dereferenceable(16) %5, ptr noundef nonnull align 8 dereferenceable(16) %6) #9
  ret void
}

; Function Attrs: mustprogress uwtable
define linkonce_odr void @_ZSt9call_onceIRFvvEJEEvRSt9once_flagOT_DpOT0_(ptr noundef nonnull align 4 dereferenceable(4) %0, ptr noundef nonnull %1) #1 comdat personality ptr @__gxx_personality_v0 {
  %3 = alloca ptr, align 8
  %4 = alloca ptr, align 8
  %5 = alloca %class.anon, align 8
  %6 = alloca %"struct.std::once_flag::_Prepare_execution", align 1
  %7 = alloca i32, align 4
  %8 = alloca ptr, align 8
  %9 = alloca i32, align 4
  store ptr %0, ptr %3, align 8, !tbaa !143
  store ptr %1, ptr %4, align 8, !tbaa !145
  call void @llvm.lifetime.start.p0(i64 8, ptr %5) #9
  %10 = getelementptr inbounds nuw %class.anon, ptr %5, i32 0, i32 0
  %11 = load ptr, ptr %4, align 8, !tbaa !145
  store ptr %11, ptr %10, align 8, !tbaa !145
  call void @llvm.lifetime.start.p0(i64 1, ptr %6) #9
  call void @_ZNSt9once_flag18_Prepare_executionC2IZSt9call_onceIRFvvEJEEvRS_OT_DpOT0_EUlvE_EERS6_(ptr noundef nonnull align 1 dereferenceable(1) %6, ptr noundef nonnull align 8 dereferenceable(8) %5)
  call void @llvm.lifetime.start.p0(i64 4, ptr %7) #9
  %12 = load ptr, ptr %3, align 8, !tbaa !143
  %13 = getelementptr inbounds nuw %"struct.std::once_flag", ptr %12, i32 0, i32 0
  %14 = invoke noundef i32 @_ZL14__gthread_oncePiPFvvE(ptr noundef %13, ptr noundef @__once_proxy)
          to label %15 unwind label %21

15:                                               ; preds = %2
  store i32 %14, ptr %7, align 4, !tbaa !8
  %16 = load i32, ptr %7, align 4, !tbaa !8
  %17 = icmp ne i32 %16, 0
  br i1 %17, label %18, label %25

18:                                               ; preds = %15
  %19 = load i32, ptr %7, align 4, !tbaa !8
  invoke void @_ZSt20__throw_system_errori(i32 noundef %19) #22
          to label %20 unwind label %21

20:                                               ; preds = %18
  unreachable

21:                                               ; preds = %18, %2
  %22 = landingpad { ptr, i32 }
          cleanup
  %23 = extractvalue { ptr, i32 } %22, 0
  store ptr %23, ptr %8, align 8
  %24 = extractvalue { ptr, i32 } %22, 1
  store i32 %24, ptr %9, align 4
  call void @llvm.lifetime.end.p0(i64 4, ptr %7) #9
  call void @_ZNSt9once_flag18_Prepare_executionD2Ev(ptr noundef nonnull align 1 dereferenceable(1) %6) #9
  call void @llvm.lifetime.end.p0(i64 1, ptr %6) #9
  call void @llvm.lifetime.end.p0(i64 8, ptr %5) #9
  br label %26

25:                                               ; preds = %15
  call void @llvm.lifetime.end.p0(i64 4, ptr %7) #9
  call void @_ZNSt9once_flag18_Prepare_executionD2Ev(ptr noundef nonnull align 1 dereferenceable(1) %6) #9
  call void @llvm.lifetime.end.p0(i64 1, ptr %6) #9
  call void @llvm.lifetime.end.p0(i64 8, ptr %5) #9
  ret void

26:                                               ; preds = %21
  %27 = load ptr, ptr %8, align 8
  %28 = load i32, ptr %9, align 4
  %29 = insertvalue { ptr, i32 } poison, ptr %27, 0
  %30 = insertvalue { ptr, i32 } %29, i32 %28, 1
  resume { ptr, i32 } %30
}

; Function Attrs: mustprogress nounwind uwtable
define linkonce_odr noundef ptr @_ZNKSt19__shared_ptr_accessIN5arrow21ExtensionTypeRegistryELN9__gnu_cxx12_Lock_policyE2ELb0ELb0EEptEv(ptr noundef nonnull align 1 dereferenceable(1) %0) #0 comdat align 2 {
  %2 = alloca ptr, align 8
  store ptr %0, ptr %2, align 8, !tbaa !155
  %3 = load ptr, ptr %2, align 8
  %4 = call noundef ptr @_ZNKSt19__shared_ptr_accessIN5arrow21ExtensionTypeRegistryELN9__gnu_cxx12_Lock_policyE2ELb0ELb0EE6_M_getEv(ptr noundef nonnull align 1 dereferenceable(1) %3) #9
  ret ptr %4
}

; Function Attrs: mustprogress uwtable
define void @_ZN5arrow21ExtensionTypeRegistry17GetGlobalRegistryEv(ptr dead_on_unwind noalias writable sret(%"class.std::shared_ptr.51") align 8 %0) #1 align 2 {
  %2 = alloca ptr, align 8
  store ptr %0, ptr %2, align 8
  call void @_ZSt9call_onceIRFvvEJEEvRSt9once_flagOT_DpOT0_(ptr noundef nonnull align 4 dereferenceable(4) @_ZN5arrowL20registry_initializedE, ptr noundef nonnull @_ZN5arrow8internalL20CreateGlobalRegistryEv)
  call void @_ZNSt10shared_ptrIN5arrow21ExtensionTypeRegistryEEC2ERKS2_(ptr noundef nonnull align 8 dereferenceable(16) %0, ptr noundef nonnull align 8 dereferenceable(16) @_ZN5arrowL10g_registryE) #9
  ret void
}

; Function Attrs: mustprogress uwtable
define void @_ZN5arrow16GetExtensionTypeERKNSt7__cxx1112basic_stringIcSt11char_traitsIcESaIcEEE(ptr dead_on_unwind noalias writable sret(%"class.std::shared_ptr.56") align 8 %0, ptr noundef nonnull align 8 dereferenceable(32) %1) #1 personality ptr @__gxx_personality_v0 {
  %3 = alloca ptr, align 8
  %4 = alloca ptr, align 8
  %5 = alloca %"class.std::shared_ptr.51", align 8
  %6 = alloca ptr, align 8
  %7 = alloca i32, align 4
  store ptr %0, ptr %3, align 8
  store ptr %1, ptr %4, align 8, !tbaa !67
  call void @llvm.lifetime.start.p0(i64 16, ptr %5) #9
  call void @_ZN5arrow21ExtensionTypeRegistry17GetGlobalRegistryEv(ptr dead_on_unwind writable sret(%"class.std::shared_ptr.51") align 8 %5)
  %8 = call noundef ptr @_ZNKSt19__shared_ptr_accessIN5arrow21ExtensionTypeRegistryELN9__gnu_cxx12_Lock_policyE2ELb0ELb0EEptEv(ptr noundef nonnull align 1 dereferenceable(1) %5) #9
  %9 = load ptr, ptr %4, align 8, !tbaa !67
  %10 = load ptr, ptr %8, align 8, !tbaa !55
  %11 = getelementptr inbounds ptr, ptr %10, i64 4
  %12 = load ptr, ptr %11, align 8
  invoke void %12(ptr dead_on_unwind writable sret(%"class.std::shared_ptr.56") align 8 %0, ptr noundef nonnull align 8 dereferenceable(8) %8, ptr noundef nonnull align 8 dereferenceable(32) %9)
          to label %13 unwind label %14

13:                                               ; preds = %2
  call void @_ZNSt12__shared_ptrIN5arrow21ExtensionTypeRegistryELN9__gnu_cxx12_Lock_policyE2EED2Ev(ptr noundef nonnull align 8 dereferenceable(16) %5) #9
  call void @llvm.lifetime.end.p0(i64 16, ptr %5) #9
  ret void

14:                                               ; preds = %2
  %15 = landingpad { ptr, i32 }
          cleanup
  %16 = extractvalue { ptr, i32 } %15, 0
  store ptr %16, ptr %6, align 8
  %17 = extractvalue { ptr, i32 } %15, 1
  store i32 %17, ptr %7, align 4
  call void @_ZNSt12__shared_ptrIN5arrow21ExtensionTypeRegistryELN9__gnu_cxx12_Lock_policyE2EED2Ev(ptr noundef nonnull align 8 dereferenceable(16) %5) #9
  call void @llvm.lifetime.end.p0(i64 16, ptr %5) #9
  br label %18

18:                                               ; preds = %14
  %19 = load ptr, ptr %6, align 8
  %20 = load i32, ptr %7, align 4
  %21 = insertvalue { ptr, i32 } poison, ptr %19, 0
  %22 = insertvalue { ptr, i32 } %21, i32 %20, 1
  resume { ptr, i32 } %22
}